; ModuleID = '50/1621.c'
source_filename = "50/1621.c"
target datalayout = "e-m:e-p270:32:32-p271:32:32-p272:64:64-i64:64-f80:128-n8:16:32:64-S128"
target triple = "x86_64-pc-linux-gnu"

@.str = private unnamed_addr constant [3 x i8] c"%d\00", align 1
@.str.1 = private unnamed_addr constant [4 x i8] c"%d\0A\00", align 1

; Function Attrs: noinline nounwind uwtable
define dso_local i32 @main(i32 %0, i8** %1) #0 {
  %3 = alloca i32, align 4
  %4 = alloca i32, align 4
  %5 = alloca i8**, align 8
  %6 = alloca i32, align 4
  %7 = alloca i32, align 4
  store i32 0, i32* %3, align 4
  store i32 %0, i32* %4, align 4
  store i8** %1, i8*** %5, align 8
  %8 = call i32 (i8*, ...) @__isoc99_scanf(i8* getelementptr inbounds ([3 x i8], [3 x i8]* @.str, i64 0, i64 0), i32* %6)
  store i32 1, i32* %7, align 4
  br label %9

9:                                                ; preds = %55, %2
  %10 = load i32, i32* %7, align 4
  %11 = icmp sle i32 %10, 12
  br i1 %11, label %12, label %58

12:                                               ; preds = %9
  %13 = load i32, i32* %6, align 4
  %14 = add nsw i32 %13, 12
  %15 = srem i32 %14, 7
  %16 = icmp eq i32 %15, 5
  br i1 %16, label %17, label %20

17:                                               ; preds = %12
  %18 = load i32, i32* %7, align 4
  %19 = call i32 (i8*, ...) @printf(i8* getelementptr inbounds ([4 x i8], [4 x i8]* @.str.1, i64 0, i64 0), i32 %18)
  br label %20

20:                                               ; preds = %17, %12
  %21 = load i32, i32* %7, align 4
  %22 = icmp eq i32 %21, 1
  br i1 %22, label %41, label %23

23:                                               ; preds = %20
  %24 = load i32, i32* %7, align 4
  %25 = icmp eq i32 %24, 3
  br i1 %25, label %41, label %26

26:                                               ; preds = %23
  %27 = load i32, i32* %7, align 4
  %28 = icmp eq i32 %27, 5
  br i1 %28, label %41, label %29

29:                                               ; preds = %26
  %30 = load i32, i32* %7, align 4
  %31 = icmp eq i32 %30, 7
  br i1 %31, label %41, label %32

32:                                               ; preds = %29
  %33 = load i32, i32* %7, align 4
  %34 = icmp eq i32 %33, 8
  br i1 %34, label %41, label %35

35:                                               ; preds = %32
  %36 = load i32, i32* %7, align 4
  %37 = icmp eq i32 %36, 10
  br i1 %37, label %41, label %38

38:                                               ; preds = %35
  %39 = load i32, i32* %7, align 4
  %40 = icmp eq i32 %39, 12
  br i1 %40, label %41, label %44

41:                                               ; preds = %38, %35, %32, %29, %26, %23, %20
  %42 = load i32, i32* %6, align 4
  %43 = add nsw i32 %42, 31
  store i32 %43, i32* %6, align 4
  br label %54

44:                                               ; preds = %38
  %45 = load i32, i32* %7, align 4
  %46 = icmp eq i32 %45, 2
  br i1 %46, label %47, label %50

47:                                               ; preds = %44
  %48 = load i32, i32* %6, align 4
  %49 = add nsw i32 %48, 28
  store i32 %49, i32* %6, align 4
  br label %53

50:                                               ; preds = %44
  %51 = load i32, i32* %6, align 4
  %52 = add nsw i32 %51, 30
  store i32 %52, i32* %6, align 4
  br label %53

53:                                               ; preds = %50, %47
  br label %54

54:                                               ; preds = %53, %41
  br label %55

55:                                               ; preds = %54
  %56 = load i32, i32* %7, align 4
  %57 = add nsw i32 %56, 1
  store i32 %57, i32* %7, align 4
  br label %9

58:                                               ; preds = %9
  ret i32 0
}

declare dso_local i32 @__isoc99_scanf(i8*, ...) #1

declare dso_local i32 @printf(i8*, ...) #1


!llvm.module.flags = !{!0}
!llvm.ident = !{!1}

!0 = !{i32 1, !"wchar_size", i32 4}
!1 = !{!"clang version 10.0.0-4ubuntu1 "}
